target datalayout = "e-m:e-p270:32:32-p271:32:32-p272:64:64-i64:64-i128:128-f80:128-n8:16:32:64-S128"
target triple = "x86_64-pc-linux-gnu"

%"struct.std::array" = type { [4 x %"struct.std::array.0"] }
%"struct.std::array.0" = type { [256 x i32] }
%"struct.folly::detail::base64_detail::Base64DecodeResult" = type { i8, ptr }

; Function Attrs: mustprogress nounwind uwtable
define linkonce_odr noundef nonnull align 4 dereferenceable(4) ptr @_ZNSt14__array_traitsIjLm256EE6_S_refERA256_Kjm(ptr noundef nonnull align 4 dereferenceable(1024) %0, i64 noundef %1) #0 comdat align 2 {
  %3 = alloca ptr, align 8
  %4 = alloca i64, align 8
  store ptr %0, ptr %3, align 8, !tbaa !22
  store i64 %1, ptr %4, align 8, !tbaa !29
  %5 = load ptr, ptr %3, align 8, !tbaa !22
  %6 = load i64, ptr %4, align 8, !tbaa !29
  %7 = getelementptr inbounds nuw [256 x i32], ptr %5, i64 0, i64 %6
  ret ptr %7
}

; Function Attrs: mustprogress nounwind uwtable
define linkonce_odr noundef nonnull align 4 dereferenceable(1024) ptr @_ZNSt14__array_traitsISt5arrayIjLm256EELm4EE6_S_refERA4_KS1_m(ptr noundef nonnull align 4 dereferenceable(4096) %0, i64 noundef %1) #0 comdat align 2 {
  %3 = alloca ptr, align 8
  %4 = alloca i64, align 8
  store ptr %0, ptr %3, align 8, !tbaa !24
  store i64 %1, ptr %4, align 8, !tbaa !29
  %5 = load ptr, ptr %3, align 8, !tbaa !24
  %6 = load i64, ptr %4, align 8, !tbaa !29
  %7 = getelementptr inbounds nuw [4 x %"struct.std::array.0"], ptr %5, i64 0, i64 %6
  ret ptr %7
}

; Function Attrs: mustprogress nounwind uwtable
define linkonce_odr noundef nonnull align 4 dereferenceable(4) ptr @_ZNKSt5arrayIjLm256EEixEm(ptr noundef nonnull align 4 dereferenceable(1024) %0, i64 noundef %1) #0 comdat align 2 {
  %3 = alloca ptr, align 8
  %4 = alloca i64, align 8
  store ptr %0, ptr %3, align 8, !tbaa !24
  store i64 %1, ptr %4, align 8, !tbaa !29
  %5 = load ptr, ptr %3, align 8
  %6 = getelementptr inbounds nuw %"struct.std::array.0", ptr %5, i32 0, i32 0
  %7 = load i64, ptr %4, align 8, !tbaa !29
  %8 = call noundef nonnull align 4 dereferenceable(4) ptr @_ZNSt14__array_traitsIjLm256EE6_S_refERA256_Kjm(ptr noundef nonnull align 4 dereferenceable(1024) %6, i64 noundef %7) #5
  ret ptr %8
}

; Function Attrs: mustprogress nounwind uwtable
define linkonce_odr noundef zeroext i8 @_ZN5folly6detail13base64_detail6atAsU8EPKci(ptr noundef %0, i32 noundef %1) #0 comdat {
  %3 = alloca ptr, align 8
  %4 = alloca i32, align 4
  store ptr %0, ptr %3, align 8, !tbaa !7
  store i32 %1, ptr %4, align 4, !tbaa !16
  %5 = load ptr, ptr %3, align 8, !tbaa !7
  %6 = load i32, ptr %4, align 4, !tbaa !16
  %7 = sext i32 %6 to i64
  %8 = getelementptr inbounds i8, ptr %5, i64 %7
  %9 = load i8, ptr %8, align 1, !tbaa !26
  ret i8 %9
}

; Function Attrs: mustprogress nounwind uwtable
define linkonce_odr noundef nonnull align 4 dereferenceable(1024) ptr @_ZNKSt5arrayIS_IjLm256EELm4EEixEm(ptr noundef nonnull align 4 dereferenceable(4096) %0, i64 noundef %1) #0 comdat align 2 {
  %3 = alloca ptr, align 8
  %4 = alloca i64, align 8
  store ptr %0, ptr %3, align 8, !tbaa !27
  store i64 %1, ptr %4, align 8, !tbaa !29
  %5 = load ptr, ptr %3, align 8
  %6 = getelementptr inbounds nuw %"struct.std::array", ptr %5, i32 0, i32 0
  %7 = load i64, ptr %4, align 8, !tbaa !29
  %8 = call noundef nonnull align 4 dereferenceable(1024) ptr @_ZNSt14__array_traitsISt5arrayIjLm256EELm4EE6_S_refERA4_KS1_m(ptr noundef nonnull align 4 dereferenceable(4096) %6, i64 noundef %7) #5
  ret ptr %8
}

; Function Attrs: noinline noreturn nounwind uwtable
define linkonce_odr hidden void @__clang_call_terminate(ptr noundef %0) #2 comdat {
  %2 = call ptr @__cxa_begin_catch(ptr %0) #5
  call void @_ZSt9terminatev() #6
  unreachable
}

; Function Attrs: mustprogress nounwind uwtable
define internal noundef ptr @_ZN5folly6detail13base64_detail12_GLOBAL__N_120base64DecodeTailSWAREPKcPcRj(ptr noundef %0, ptr noundef %1, ptr noundef nonnull align 4 dereferenceable(4) %2) #0 {
  %4 = alloca ptr, align 8
  %5 = alloca ptr, align 8
  %6 = alloca ptr, align 8
  %7 = alloca ptr, align 8
  %8 = alloca ptr, align 8
  %9 = alloca i32, align 4
  %10 = alloca i32, align 4
  %11 = alloca i32, align 4
  %12 = alloca i32, align 4
  %13 = alloca i32, align 4
  store ptr %0, ptr %5, align 8, !tbaa !7
  store ptr %1, ptr %6, align 8, !tbaa !7
  store ptr %2, ptr %7, align 8, !tbaa !22
  call void @llvm.lifetime.start.p0(i64 8, ptr %8) #5
  store ptr @_ZN5folly6detail13base64_detail9constantsL22kBase64SwarDecodeTableE, ptr %8, align 8, !tbaa !24
  call void @llvm.lifetime.start.p0(i64 4, ptr %9) #5
  %14 = load ptr, ptr %5, align 8, !tbaa !7
  %15 = call noundef zeroext i8 @_ZN5folly6detail13base64_detail6atAsU8EPKci(ptr noundef %14, i32 noundef 0)
  %16 = zext i8 %15 to i64
  %17 = call noundef nonnull align 4 dereferenceable(4) ptr @_ZNKSt5arrayIjLm256EEixEm(ptr noundef nonnull align 4 dereferenceable(1024) @_ZN5folly6detail13base64_detail9constantsL22kBase64SwarDecodeTableE, i64 noundef %16) #5
  %18 = load i32, ptr %17, align 4, !tbaa !16
  store i32 %18, ptr %9, align 4, !tbaa !16
  call void @llvm.lifetime.start.p0(i64 4, ptr %10) #5
  %19 = load ptr, ptr %5, align 8, !tbaa !7
  %20 = call noundef zeroext i8 @_ZN5folly6detail13base64_detail6atAsU8EPKci(ptr noundef %19, i32 noundef 1)
  %21 = zext i8 %20 to i64
  %22 = call noundef nonnull align 4 dereferenceable(4) ptr @_ZNKSt5arrayIjLm256EEixEm(ptr noundef nonnull align 4 dereferenceable(1024) @_ZN5folly6detail13base64_detail9constantsL22kBase64SwarDecodeTableE, i64 noundef %21) #5
  %23 = load i32, ptr %22, align 4, !tbaa !16
  store i32 %23, ptr %10, align 4, !tbaa !16
  %24 = load i32, ptr %9, align 4, !tbaa !16
  %25 = load i32, ptr %10, align 4, !tbaa !16
  %26 = lshr i32 %25, 6
  %27 = or i32 %24, %26
  %28 = trunc i32 %27 to i8
  %29 = load ptr, ptr %6, align 8, !tbaa !7
  %30 = getelementptr inbounds nuw i8, ptr %29, i32 1
  store ptr %30, ptr %6, align 8, !tbaa !7
  store i8 %28, ptr %29, align 1, !tbaa !26
  %31 = load i32, ptr %9, align 4, !tbaa !16
  %32 = load i32, ptr %10, align 4, !tbaa !16
  %33 = or i32 %31, %32
  %34 = load ptr, ptr %7, align 8, !tbaa !22
  %35 = load i32, ptr %34, align 4, !tbaa !16
  %36 = or i32 %35, %33
  store i32 %36, ptr %34, align 4, !tbaa !16
  %37 = load ptr, ptr %5, align 8, !tbaa !7
  %38 = getelementptr inbounds i8, ptr %37, i64 2
  %39 = load i8, ptr %38, align 1, !tbaa !26
  %40 = sext i8 %39 to i32
  %41 = icmp eq i32 %40, 61
  br i1 %41, label %42, label %56

42:                                               ; preds = %3
  %43 = load ptr, ptr %5, align 8, !tbaa !7
  %44 = getelementptr inbounds i8, ptr %43, i64 3
  %45 = load i8, ptr %44, align 1, !tbaa !26
  %46 = sext i8 %45 to i32
  %47 = icmp eq i32 %46, 61
  br i1 %47, label %48, label %56

48:                                               ; preds = %42
  %49 = load i32, ptr %10, align 4, !tbaa !16
  %50 = and i32 %49, 60
  %51 = icmp ne i32 %50, 0
  br i1 %51, label %52, label %54

52:                                               ; preds = %48
  %53 = load ptr, ptr %7, align 8, !tbaa !22
  store i32 -1, ptr %53, align 4, !tbaa !16
  br label %54

54:                                               ; preds = %52, %48
  %55 = load ptr, ptr %6, align 8, !tbaa !7
  store ptr %55, ptr %4, align 8
  store i32 1, ptr %11, align 4
  br label %107

56:                                               ; preds = %42, %3
  call void @llvm.lifetime.start.p0(i64 4, ptr %12) #5
  %57 = load ptr, ptr %5, align 8, !tbaa !7
  %58 = call noundef zeroext i8 @_ZN5folly6detail13base64_detail6atAsU8EPKci(ptr noundef %57, i32 noundef 2)
  %59 = zext i8 %58 to i64
  %60 = call noundef nonnull align 4 dereferenceable(4) ptr @_ZNKSt5arrayIjLm256EEixEm(ptr noundef nonnull align 4 dereferenceable(1024) @_ZN5folly6detail13base64_detail9constantsL22kBase64SwarDecodeTableE, i64 noundef %59) #5
  %61 = load i32, ptr %60, align 4, !tbaa !16
  store i32 %61, ptr %12, align 4, !tbaa !16
  %62 = load i32, ptr %10, align 4, !tbaa !16
  %63 = shl i32 %62, 2
  %64 = load i32, ptr %12, align 4, !tbaa !16
  %65 = lshr i32 %64, 4
  %66 = or i32 %63, %65
  %67 = trunc i32 %66 to i8
  %68 = load ptr, ptr %6, align 8, !tbaa !7
  %69 = getelementptr inbounds nuw i8, ptr %68, i32 1
  store ptr %69, ptr %6, align 8, !tbaa !7
  store i8 %67, ptr %68, align 1, !tbaa !26
  %70 = load i32, ptr %12, align 4, !tbaa !16
  %71 = load ptr, ptr %7, align 8, !tbaa !22
  %72 = load i32, ptr %71, align 4, !tbaa !16
  %73 = or i32 %72, %70
  store i32 %73, ptr %71, align 4, !tbaa !16
  %74 = load ptr, ptr %5, align 8, !tbaa !7
  %75 = getelementptr inbounds i8, ptr %74, i64 3
  %76 = load i8, ptr %75, align 1, !tbaa !26
  %77 = sext i8 %76 to i32
  %78 = icmp eq i32 %77, 61
  br i1 %78, label %79, label %87

79:                                               ; preds = %56
  %80 = load i32, ptr %12, align 4, !tbaa !16
  %81 = and i32 %80, 12
  %82 = icmp ne i32 %81, 0
  br i1 %82, label %83, label %85

83:                                               ; preds = %79
  %84 = load ptr, ptr %7, align 8, !tbaa !22
  store i32 -1, ptr %84, align 4, !tbaa !16
  br label %85

85:                                               ; preds = %83, %79
  %86 = load ptr, ptr %6, align 8, !tbaa !7
  store ptr %86, ptr %4, align 8
  store i32 1, ptr %11, align 4
  br label %106

87:                                               ; preds = %56
  call void @llvm.lifetime.start.p0(i64 4, ptr %13) #5
  %88 = load ptr, ptr %5, align 8, !tbaa !7
  %89 = call noundef zeroext i8 @_ZN5folly6detail13base64_detail6atAsU8EPKci(ptr noundef %88, i32 noundef 3)
  %90 = zext i8 %89 to i64
  %91 = call noundef nonnull align 4 dereferenceable(4) ptr @_ZNKSt5arrayIjLm256EEixEm(ptr noundef nonnull align 4 dereferenceable(1024) @_ZN5folly6detail13base64_detail9constantsL22kBase64SwarDecodeTableE, i64 noundef %90) #5
  %92 = load i32, ptr %91, align 4, !tbaa !16
  store i32 %92, ptr %13, align 4, !tbaa !16
  %93 = load i32, ptr %12, align 4, !tbaa !16
  %94 = shl i32 %93, 4
  %95 = load i32, ptr %13, align 4, !tbaa !16
  %96 = lshr i32 %95, 2
  %97 = or i32 %94, %96
  %98 = trunc i32 %97 to i8
  %99 = load ptr, ptr %6, align 8, !tbaa !7
  %100 = getelementptr inbounds nuw i8, ptr %99, i32 1
  store ptr %100, ptr %6, align 8, !tbaa !7
  store i8 %98, ptr %99, align 1, !tbaa !26
  %101 = load i32, ptr %13, align 4, !tbaa !16
  %102 = load ptr, ptr %7, align 8, !tbaa !22
  %103 = load i32, ptr %102, align 4, !tbaa !16
  %104 = or i32 %103, %101
  store i32 %104, ptr %102, align 4, !tbaa !16
  %105 = load ptr, ptr %6, align 8, !tbaa !7
  store ptr %105, ptr %4, align 8
  store i32 1, ptr %11, align 4
  call void @llvm.lifetime.end.p0(i64 4, ptr %13) #5
  br label %106

106:                                              ; preds = %87, %85
  call void @llvm.lifetime.end.p0(i64 4, ptr %12) #5
  br label %107

107:                                              ; preds = %106, %54
  call void @llvm.lifetime.end.p0(i64 4, ptr %10) #5
  call void @llvm.lifetime.end.p0(i64 4, ptr %9) #5
  call void @llvm.lifetime.end.p0(i64 8, ptr %8) #5
  %108 = load ptr, ptr %4, align 8
  ret ptr %108
}

; Function Attrs: mustprogress nounwind uwtable
define internal noundef i32 @_ZN5folly6detail13base64_detail12_GLOBAL__N_124base64DecodeSWARMainLoopILb0EEEjRPKcS5_RPc(ptr noundef nonnull align 8 dereferenceable(8) %0, ptr noundef %1, ptr noundef nonnull align 8 dereferenceable(8) %2) #0 personality ptr @__gxx_personality_v0 {
  %4 = alloca ptr, align 8
  %5 = alloca ptr, align 8
  %6 = alloca ptr, align 8
  %7 = alloca i32, align 4
  %8 = alloca i32, align 4
  store ptr %0, ptr %4, align 8, !tbaa !18
  store ptr %1, ptr %5, align 8, !tbaa !7
  store ptr %2, ptr %6, align 8, !tbaa !18
  call void @llvm.lifetime.start.p0(i64 4, ptr %7) #5
  store i32 0, ptr %7, align 4, !tbaa !16
  br label %9

9:                                                ; preds = %48, %3
  %10 = load ptr, ptr %5, align 8, !tbaa !7
  %11 = load ptr, ptr %4, align 8, !tbaa !18
  %12 = load ptr, ptr %11, align 8, !tbaa !7
  %13 = ptrtoint ptr %10 to i64
  %14 = ptrtoint ptr %12 to i64
  %15 = sub i64 %13, %14
  %16 = icmp sgt i64 %15, 4
  br i1 %16, label %17, label %64

17:                                               ; preds = %9
  call void @llvm.lifetime.start.p0(i64 4, ptr %8) #5
  %18 = call noundef nonnull align 4 dereferenceable(1024) ptr @_ZNKSt5arrayIS_IjLm256EELm4EEixEm(ptr noundef nonnull align 4 dereferenceable(4096) @_ZN5folly6detail13base64_detail12_GLOBAL__N_122kBase64SwarDecodeTableILb0EEE, i64 noundef 0) #5
  %19 = load ptr, ptr %4, align 8, !tbaa !18
  %20 = load ptr, ptr %19, align 8, !tbaa !7
  %21 = invoke noundef zeroext i8 @_ZN5folly6detail13base64_detail6atAsU8EPKci(ptr noundef %20, i32 noundef 0)
          to label %22 unwind label %66

22:                                               ; preds = %17
  %23 = zext i8 %21 to i64
  %24 = call noundef nonnull align 4 dereferenceable(4) ptr @_ZNKSt5arrayIjLm256EEixEm(ptr noundef nonnull align 4 dereferenceable(1024) %18, i64 noundef %23) #5
  %25 = load i32, ptr %24, align 4, !tbaa !16
  %26 = call noundef nonnull align 4 dereferenceable(1024) ptr @_ZNKSt5arrayIS_IjLm256EELm4EEixEm(ptr noundef nonnull align 4 dereferenceable(4096) @_ZN5folly6detail13base64_detail12_GLOBAL__N_122kBase64SwarDecodeTableILb0EEE, i64 noundef 1) #5
  %27 = load ptr, ptr %4, align 8, !tbaa !18
  %28 = load ptr, ptr %27, align 8, !tbaa !7
  %29 = invoke noundef zeroext i8 @_ZN5folly6detail13base64_detail6atAsU8EPKci(ptr noundef %28, i32 noundef 1)
          to label %30 unwind label %66

30:                                               ; preds = %22
  %31 = zext i8 %29 to i64
  %32 = call noundef nonnull align 4 dereferenceable(4) ptr @_ZNKSt5arrayIjLm256EEixEm(ptr noundef nonnull align 4 dereferenceable(1024) %26, i64 noundef %31) #5
  %33 = load i32, ptr %32, align 4, !tbaa !16
  %34 = or i32 %25, %33
  %35 = call noundef nonnull align 4 dereferenceable(1024) ptr @_ZNKSt5arrayIS_IjLm256EELm4EEixEm(ptr noundef nonnull align 4 dereferenceable(4096) @_ZN5folly6detail13base64_detail12_GLOBAL__N_122kBase64SwarDecodeTableILb0EEE, i64 noundef 2) #5
  %36 = load ptr, ptr %4, align 8, !tbaa !18
  %37 = load ptr, ptr %36, align 8, !tbaa !7
  %38 = invoke noundef zeroext i8 @_ZN5folly6detail13base64_detail6atAsU8EPKci(ptr noundef %37, i32 noundef 2)
          to label %39 unwind label %66

39:                                               ; preds = %30
  %40 = zext i8 %38 to i64
  %41 = call noundef nonnull align 4 dereferenceable(4) ptr @_ZNKSt5arrayIjLm256EEixEm(ptr noundef nonnull align 4 dereferenceable(1024) %35, i64 noundef %40) #5
  %42 = load i32, ptr %41, align 4, !tbaa !16
  %43 = or i32 %34, %42
  %44 = call noundef nonnull align 4 dereferenceable(1024) ptr @_ZNKSt5arrayIS_IjLm256EELm4EEixEm(ptr noundef nonnull align 4 dereferenceable(4096) @_ZN5folly6detail13base64_detail12_GLOBAL__N_122kBase64SwarDecodeTableILb0EEE, i64 noundef 3) #5
  %45 = load ptr, ptr %4, align 8, !tbaa !18
  %46 = load ptr, ptr %45, align 8, !tbaa !7
  %47 = invoke noundef zeroext i8 @_ZN5folly6detail13base64_detail6atAsU8EPKci(ptr noundef %46, i32 noundef 3)
          to label %48 unwind label %66

48:                                               ; preds = %39
  %49 = zext i8 %47 to i64
  %50 = call noundef nonnull align 4 dereferenceable(4) ptr @_ZNKSt5arrayIjLm256EEixEm(ptr noundef nonnull align 4 dereferenceable(1024) %44, i64 noundef %49) #5
  %51 = load i32, ptr %50, align 4, !tbaa !16
  %52 = or i32 %43, %51
  store i32 %52, ptr %8, align 4, !tbaa !16
  %53 = load i32, ptr %8, align 4, !tbaa !16
  %54 = load i32, ptr %7, align 4, !tbaa !16
  %55 = or i32 %54, %53
  store i32 %55, ptr %7, align 4, !tbaa !16
  %56 = load ptr, ptr %6, align 8, !tbaa !18
  %57 = load ptr, ptr %56, align 8, !tbaa !7
  call void @llvm.memcpy.p0.p0.i64(ptr align 1 %57, ptr align 4 %8, i64 4, i1 false)
  %58 = load ptr, ptr %4, align 8, !tbaa !18
  %59 = load ptr, ptr %58, align 8, !tbaa !7
  %60 = getelementptr inbounds i8, ptr %59, i64 4
  store ptr %60, ptr %58, align 8, !tbaa !7
  %61 = load ptr, ptr %6, align 8, !tbaa !18
  %62 = load ptr, ptr %61, align 8, !tbaa !7
  %63 = getelementptr inbounds i8, ptr %62, i64 3
  store ptr %63, ptr %61, align 8, !tbaa !7
  call void @llvm.lifetime.end.p0(i64 4, ptr %8) #5
  br label %9, !llvm.loop !20

64:                                               ; preds = %9
  %65 = load i32, ptr %7, align 4, !tbaa !16
  call void @llvm.lifetime.end.p0(i64 4, ptr %7) #5
  ret i32 %65

66:                                               ; preds = %39, %30, %22, %17
  %67 = landingpad { ptr, i32 }
          catch ptr null
  %68 = extractvalue { ptr, i32 } %67, 0
  call void @__clang_call_terminate(ptr %68) #6
  unreachable
}

; Function Attrs: mustprogress nounwind uwtable
define { i8, ptr } @_ZN5folly6detail13base64_detail16base64DecodeSWAREPKcS3_Pc(ptr noundef %0, ptr noundef %1, ptr noundef %2) #0 personality ptr @__gxx_personality_v0 {
  %4 = alloca %"struct.folly::detail::base64_detail::Base64DecodeResult", align 8
  %5 = alloca ptr, align 8
  %6 = alloca ptr, align 8
  %7 = alloca ptr, align 8
  %8 = alloca i32, align 4
  store ptr %0, ptr %5, align 8, !tbaa !7
  store ptr %1, ptr %6, align 8, !tbaa !7
  store ptr %2, ptr %7, align 8, !tbaa !7
  %9 = load ptr, ptr %5, align 8, !tbaa !7
  %10 = load ptr, ptr %6, align 8, !tbaa !7
  %11 = icmp eq ptr %9, %10
  br i1 %11, label %12, label %16

12:                                               ; preds = %3
  %13 = getelementptr inbounds nuw %"struct.folly::detail::base64_detail::Base64DecodeResult", ptr %4, i32 0, i32 0
  store i8 1, ptr %13, align 8, !tbaa !12
  %14 = getelementptr inbounds nuw %"struct.folly::detail::base64_detail::Base64DecodeResult", ptr %4, i32 0, i32 1
  %15 = load ptr, ptr %7, align 8, !tbaa !7
  store ptr %15, ptr %14, align 8, !tbaa !15
  br label %41

16:                                               ; preds = %3
  %17 = load ptr, ptr %6, align 8, !tbaa !7
  %18 = load ptr, ptr %5, align 8, !tbaa !7
  %19 = ptrtoint ptr %17 to i64
  %20 = ptrtoint ptr %18 to i64
  %21 = sub i64 %19, %20
  %22 = srem i64 %21, 4
  %23 = icmp ne i64 %22, 0
  br i1 %23, label %24, label %28

24:                                               ; preds = %16
  %25 = getelementptr inbounds nuw %"struct.folly::detail::base64_detail::Base64DecodeResult", ptr %4, i32 0, i32 0
  store i8 0, ptr %25, align 8, !tbaa !12
  %26 = getelementptr inbounds nuw %"struct.folly::detail::base64_detail::Base64DecodeResult", ptr %4, i32 0, i32 1
  %27 = load ptr, ptr %7, align 8, !tbaa !7
  store ptr %27, ptr %26, align 8, !tbaa !15
  br label %41

28:                                               ; preds = %16
  call void @llvm.lifetime.start.p0(i64 4, ptr %8) #5
  %29 = load ptr, ptr %6, align 8, !tbaa !7
  %30 = call noundef i32 @_ZN5folly6detail13base64_detail12_GLOBAL__N_124base64DecodeSWARMainLoopILb0EEEjRPKcS5_RPc(ptr noundef nonnull align 8 dereferenceable(8) %5, ptr noundef %29, ptr noundef nonnull align 8 dereferenceable(8) %7) #5
  store i32 %30, ptr %8, align 4, !tbaa !16
  %31 = load ptr, ptr %5, align 8, !tbaa !7
  %32 = load ptr, ptr %7, align 8, !tbaa !7
  %33 = invoke noundef ptr @_ZN5folly6detail13base64_detail12_GLOBAL__N_120base64DecodeTailSWAREPKcPcRj(ptr noundef %31, ptr noundef %32, ptr noundef nonnull align 4 dereferenceable(4) %8)
          to label %34 unwind label %43

34:                                               ; preds = %28
  store ptr %33, ptr %7, align 8, !tbaa !7
  %35 = getelementptr inbounds nuw %"struct.folly::detail::base64_detail::Base64DecodeResult", ptr %4, i32 0, i32 0
  %36 = load i32, ptr %8, align 4, !tbaa !16
  %37 = icmp ne i32 %36, -1
  %38 = zext i1 %37 to i8
  store i8 %38, ptr %35, align 8, !tbaa !12
  %39 = getelementptr inbounds nuw %"struct.folly::detail::base64_detail::Base64DecodeResult", ptr %4, i32 0, i32 1
  %40 = load ptr, ptr %7, align 8, !tbaa !7
  store ptr %40, ptr %39, align 8, !tbaa !15
  call void @llvm.lifetime.end.p0(i64 4, ptr %8) #5
  br label %41

41:                                               ; preds = %34, %24, %12
  %42 = load { i8, ptr }, ptr %4, align 8
  ret { i8, ptr } %42

43:                                               ; preds = %28
  %44 = landingpad { ptr, i32 }
          catch ptr null
  %45 = extractvalue { ptr, i32 } %44, 0
  call void @__clang_call_terminate(ptr %45) #6
  unreachable
}