; Function Attrs: mustprogress nofree norecurse nosync nounwind memory(argmem: readwrite) uwtable
define { i8, ptr } @_ZN5folly6detail13base64_detail16base64DecodeSWAREPKcS3_Pc(ptr noundef %0, ptr noundef %1, ptr noundef %2) local_unnamed_addr #0 personality ptr @__gxx_personality_v0 {
  %4 = icmp eq ptr %0, %1
  br i1 %4, label %91, label %5

5:                                                ; preds = %3
  %6 = ptrtoint ptr %1 to i64
  %7 = ptrtoint ptr %0 to i64
  %8 = sub i64 %6, %7
  %9 = and i64 %8, 3
  %.not = icmp eq i64 %9, 0
  br i1 %.not, label %10, label %91

10:                                               ; preds = %5
  %11 = icmp sgt i64 %8, 4
  br i1 %11, label %.lr.ph.i, label %_ZN5folly6detail13base64_detail12_GLOBAL__N_124base64DecodeSWARMainLoopILb0EEEjRPKcS5_RPc.exit

.lr.ph.i:                                         ; preds = %10, %.lr.ph.i
  %.013 = phi ptr [ %35, %.lr.ph.i ], [ %0, %10 ]
  %.012 = phi ptr [ %36, %.lr.ph.i ], [ %2, %10 ]
  %.011.i = phi i32 [ %34, %.lr.ph.i ], [ 0, %10 ]
  %12 = load i8, ptr %.013, align 1, !tbaa !7
  %13 = zext i8 %12 to i64
  %14 = getelementptr inbounds nuw [256 x i32], ptr @_ZN5folly6detail13base64_detail9constantsL22kBase64SwarDecodeTableE, i64 0, i64 %13
  %15 = load i32, ptr %14, align 4, !tbaa !10
  %16 = getelementptr inbounds nuw i8, ptr %.013, i64 1
  %17 = load i8, ptr %16, align 1, !tbaa !7
  %18 = zext i8 %17 to i64
  %19 = getelementptr inbounds nuw [256 x i32], ptr getelementptr inbounds nuw (i8, ptr @_ZN5folly6detail13base64_detail9constantsL22kBase64SwarDecodeTableE, i64 1024), i64 0, i64 %18
  %20 = load i32, ptr %19, align 4, !tbaa !10
  %21 = or i32 %20, %15
  %22 = getelementptr inbounds nuw i8, ptr %.013, i64 2
  %23 = load i8, ptr %22, align 1, !tbaa !7
  %24 = zext i8 %23 to i64
  %25 = getelementptr inbounds nuw [256 x i32], ptr getelementptr inbounds nuw (i8, ptr @_ZN5folly6detail13base64_detail9constantsL22kBase64SwarDecodeTableE, i64 2048), i64 0, i64 %24
  %26 = load i32, ptr %25, align 4, !tbaa !10
  %27 = or i32 %21, %26
  %28 = getelementptr inbounds nuw i8, ptr %.013, i64 3
  %29 = load i8, ptr %28, align 1, !tbaa !7
  %30 = zext i8 %29 to i64
  %31 = getelementptr inbounds nuw [256 x i32], ptr getelementptr inbounds nuw (i8, ptr @_ZN5folly6detail13base64_detail9constantsL22kBase64SwarDecodeTableE, i64 3072), i64 0, i64 %30
  %32 = load i32, ptr %31, align 4, !tbaa !10
  %33 = or i32 %27, %32
  %34 = or i32 %33, %.011.i
  store i32 %33, ptr %.012, align 1
  %35 = getelementptr inbounds nuw i8, ptr %.013, i64 4
  %36 = getelementptr inbounds nuw i8, ptr %.012, i64 3
  %37 = ptrtoint ptr %35 to i64
  %38 = sub i64 %6, %37
  %39 = icmp sgt i64 %38, 4
  br i1 %39, label %.lr.ph.i, label %_ZN5folly6detail13base64_detail12_GLOBAL__N_124base64DecodeSWARMainLoopILb0EEEjRPKcS5_RPc.exit, !llvm.loop !12

_ZN5folly6detail13base64_detail12_GLOBAL__N_124base64DecodeSWARMainLoopILb0EEEjRPKcS5_RPc.exit: ; preds = %.lr.ph.i, %10
  %.114 = phi ptr [ %0, %10 ], [ %35, %.lr.ph.i ]
  %.1 = phi ptr [ %2, %10 ], [ %36, %.lr.ph.i ]
  %.0.lcssa.i = phi i32 [ 0, %10 ], [ %34, %.lr.ph.i ]
  %40 = load i8, ptr %.114, align 1, !tbaa !7
  %41 = zext i8 %40 to i64
  %42 = getelementptr inbounds nuw [256 x i32], ptr @_ZN5folly6detail13base64_detail9constantsL22kBase64SwarDecodeTableE, i64 0, i64 %41
  %43 = load i32, ptr %42, align 4, !tbaa !10
  %44 = getelementptr inbounds nuw i8, ptr %.114, i64 1
  %45 = load i8, ptr %44, align 1, !tbaa !7
  %46 = zext i8 %45 to i64
  %47 = getelementptr inbounds nuw [256 x i32], ptr @_ZN5folly6detail13base64_detail9constantsL22kBase64SwarDecodeTableE, i64 0, i64 %46
  %48 = load i32, ptr %47, align 4, !tbaa !10
  %49 = lshr i32 %48, 6
  %50 = or i32 %49, %43
  %51 = trunc i32 %50 to i8
  %52 = getelementptr inbounds nuw i8, ptr %.1, i64 1
  store i8 %51, ptr %.1, align 1, !tbaa !7
  %53 = or i32 %43, %.0.lcssa.i
  %54 = or i32 %53, %48
  %55 = getelementptr inbounds nuw i8, ptr %.114, i64 2
  %56 = load i8, ptr %55, align 1, !tbaa !7
  %57 = icmp eq i8 %56, 61
  br i1 %57, label %58, label %64

58:                                               ; preds = %_ZN5folly6detail13base64_detail12_GLOBAL__N_124base64DecodeSWARMainLoopILb0EEEjRPKcS5_RPc.exit
  %59 = getelementptr inbounds nuw i8, ptr %.114, i64 3
  %60 = load i8, ptr %59, align 1, !tbaa !7
  %61 = icmp eq i8 %60, 61
  br i1 %61, label %62, label %64

62:                                               ; preds = %58
  %63 = and i32 %48, 60
  %.not30.i = icmp eq i32 %63, 0
  br i1 %.not30.i, label %_ZN5folly6detail13base64_detail12_GLOBAL__N_120base64DecodeTailSWAREPKcPcRj.exit, label %.sink.split.i

64:                                               ; preds = %58, %_ZN5folly6detail13base64_detail12_GLOBAL__N_124base64DecodeSWARMainLoopILb0EEEjRPKcS5_RPc.exit
  %65 = zext i8 %56 to i64
  %66 = getelementptr inbounds nuw [256 x i32], ptr @_ZN5folly6detail13base64_detail9constantsL22kBase64SwarDecodeTableE, i64 0, i64 %65
  %67 = load i32, ptr %66, align 4, !tbaa !10
  %68 = shl i32 %48, 2
  %69 = lshr i32 %67, 4
  %70 = or i32 %69, %68
  %71 = trunc i32 %70 to i8
  %72 = getelementptr inbounds nuw i8, ptr %.1, i64 2
  store i8 %71, ptr %52, align 1, !tbaa !7
  %73 = or i32 %67, %54
  %74 = getelementptr inbounds nuw i8, ptr %.114, i64 3
  %75 = load i8, ptr %74, align 1, !tbaa !7
  %76 = icmp eq i8 %75, 61
  br i1 %76, label %77, label %79

77:                                               ; preds = %64
  %78 = and i32 %67, 12
  %.not.i = icmp eq i32 %78, 0
  br i1 %.not.i, label %_ZN5folly6detail13base64_detail12_GLOBAL__N_120base64DecodeTailSWAREPKcPcRj.exit, label %.sink.split.i

79:                                               ; preds = %64
  %80 = zext i8 %75 to i64
  %81 = getelementptr inbounds nuw [256 x i32], ptr @_ZN5folly6detail13base64_detail9constantsL22kBase64SwarDecodeTableE, i64 0, i64 %80
  %82 = load i32, ptr %81, align 4, !tbaa !10
  %83 = shl i32 %67, 4
  %84 = lshr i32 %82, 2
  %85 = or i32 %84, %83
  %86 = trunc i32 %85 to i8
  %87 = getelementptr inbounds nuw i8, ptr %.1, i64 3
  store i8 %86, ptr %72, align 1, !tbaa !7
  %88 = or i32 %82, %73
  br label %.sink.split.i

.sink.split.i:                                    ; preds = %79, %77, %62
  %.sink.i = phi i32 [ %88, %79 ], [ -1, %62 ], [ -1, %77 ]
  %.0.ph.i = phi ptr [ %87, %79 ], [ %52, %62 ], [ %72, %77 ]
  br label %_ZN5folly6detail13base64_detail12_GLOBAL__N_120base64DecodeTailSWAREPKcPcRj.exit

_ZN5folly6detail13base64_detail12_GLOBAL__N_120base64DecodeTailSWAREPKcPcRj.exit: ; preds = %62, %77, %.sink.split.i
  %.0 = phi i32 [ %54, %62 ], [ %.sink.i, %.sink.split.i ], [ %73, %77 ]
  %.0.i = phi ptr [ %52, %62 ], [ %.0.ph.i, %.sink.split.i ], [ %72, %77 ]
  %89 = icmp ne i32 %.0, -1
  %90 = zext i1 %89 to i8
  br label %91

91:                                               ; preds = %5, %3, %_ZN5folly6detail13base64_detail12_GLOBAL__N_120base64DecodeTailSWAREPKcPcRj.exit
  %.sroa.0.0 = phi i8 [ %90, %_ZN5folly6detail13base64_detail12_GLOBAL__N_120base64DecodeTailSWAREPKcPcRj.exit ], [ 1, %3 ], [ 0, %5 ]
  %.sroa.4.0 = phi ptr [ %.0.i, %_ZN5folly6detail13base64_detail12_GLOBAL__N_120base64DecodeTailSWAREPKcPcRj.exit ], [ %2, %3 ], [ %2, %5 ]
  %.fca.0.insert = insertvalue { i8, ptr } poison, i8 %.sroa.0.0, 0
  %.fca.1.insert = insertvalue { i8, ptr } %.fca.0.insert, ptr %.sroa.4.0, 1
  ret { i8, ptr } %.fca.1.insert
}